target datalayout = "e-m:e-p270:32:32-p271:32:32-p272:64:64-i64:64-i128:128-f80:128-n8:16:32:64-S128"
target triple = "x86_64-pc-linux-gnu"

%struct.sgraph = type { i32, i32, i32, i32, ptr, ptr }

@stderr = external global ptr, align 8
@.str = private unnamed_addr constant [58 x i8] c"integer overflow when trying to allocate %zu * %zu bytes\0A\00", align 1
@.str.1 = private unnamed_addr constant [49 x i8] c"out of memory when trying to allocate %zu bytes\0A\00", align 1

; Function Attrs: inlinehint nounwind uwtable
define internal ptr @gv_calloc(i64 noundef %0, i64 noundef %1) #2 {
  %3 = alloca i64, align 8
  %4 = alloca i64, align 8
  %5 = alloca ptr, align 8
  store i64 %0, ptr %3, align 8, !tbaa !32
  store i64 %1, ptr %4, align 8, !tbaa !32
  %6 = load i64, ptr %3, align 8, !tbaa !32
  %7 = icmp ugt i64 %6, 0
  br i1 %7, label %8, label %18

8:                                                ; preds = %2
  %9 = load i64, ptr %3, align 8, !tbaa !32
  %10 = udiv i64 -1, %9
  %11 = load i64, ptr %4, align 8, !tbaa !32
  %12 = icmp ult i64 %10, %11
  br i1 %12, label %13, label %18

13:                                               ; preds = %8
  %14 = load ptr, ptr @stderr, align 8, !tbaa !34
  %15 = load i64, ptr %3, align 8, !tbaa !32
  %16 = load i64, ptr %4, align 8, !tbaa !32
  %17 = call i32 (ptr, ptr, ...) @fprintf(ptr noundef %14, ptr noundef @.str, i64 noundef %15, i64 noundef %16) #8
  call void @graphviz_exit(i32 noundef 1) #9
  unreachable

18:                                               ; preds = %8, %2
  call void @llvm.lifetime.start.p0(i64 8, ptr %5) #8
  %19 = load i64, ptr %3, align 8, !tbaa !32
  %20 = load i64, ptr %4, align 8, !tbaa !32
  %21 = call noalias ptr @calloc(i64 noundef %19, i64 noundef %20) #10
  store ptr %21, ptr %5, align 8, !tbaa !3
  %22 = load i64, ptr %3, align 8, !tbaa !32
  %23 = icmp ugt i64 %22, 0
  br i1 %23, label %24, label %36

24:                                               ; preds = %18
  %25 = load i64, ptr %4, align 8, !tbaa !32
  %26 = icmp ugt i64 %25, 0
  br i1 %26, label %27, label %36

27:                                               ; preds = %24
  %28 = load ptr, ptr %5, align 8, !tbaa !3
  %29 = icmp eq ptr %28, null
  br i1 %29, label %30, label %36

30:                                               ; preds = %27
  %31 = load ptr, ptr @stderr, align 8, !tbaa !34
  %32 = load i64, ptr %3, align 8, !tbaa !32
  %33 = load i64, ptr %4, align 8, !tbaa !32
  %34 = mul i64 %32, %33
  %35 = call i32 (ptr, ptr, ...) @fprintf(ptr noundef %31, ptr noundef @.str.1, i64 noundef %34) #8
  call void @graphviz_exit(i32 noundef 1) #9
  unreachable

36:                                               ; preds = %27, %24, %18
  %37 = load ptr, ptr %5, align 8, !tbaa !3
  call void @llvm.lifetime.end.p0(i64 8, ptr %5) #8
  ret ptr %37
}

; Function Attrs: inlinehint nounwind uwtable
define internal ptr @gv_alloc(i64 noundef %0) #2 {
  %2 = alloca i64, align 8
  store i64 %0, ptr %2, align 8, !tbaa !32
  %3 = load i64, ptr %2, align 8, !tbaa !32
  %4 = call ptr @gv_calloc(i64 noundef 1, i64 noundef %3)
  ret ptr %4
}

; Function Attrs: nounwind uwtable
define ptr @createSGraph(i32 noundef %0) #0 {
  %2 = alloca i32, align 4
  %3 = alloca ptr, align 8
  store i32 %0, ptr %2, align 4, !tbaa !15
  call void @llvm.lifetime.start.p0(i64 8, ptr %3) #8
  %4 = call ptr @gv_alloc(i64 noundef 32)
  store ptr %4, ptr %3, align 8, !tbaa !3
  %5 = load ptr, ptr %3, align 8, !tbaa !3
  %6 = getelementptr inbounds nuw %struct.sgraph, ptr %5, i32 0, i32 0
  store i32 0, ptr %6, align 8, !tbaa !7
  %7 = load i32, ptr %2, align 4, !tbaa !15
  %8 = sext i32 %7 to i64
  %9 = call ptr @gv_calloc(i64 noundef %8, i64 noundef 64)
  %10 = load ptr, ptr %3, align 8, !tbaa !3
  %11 = getelementptr inbounds nuw %struct.sgraph, ptr %10, i32 0, i32 4
  store ptr %9, ptr %11, align 8, !tbaa !16
  %12 = load ptr, ptr %3, align 8, !tbaa !3
  call void @llvm.lifetime.end.p0(i64 8, ptr %3) #8
  ret ptr %12
}