; Function Attrs: nofree nounwind uwtable
define noalias noundef ptr @createSGraph(i32 noundef %0) local_unnamed_addr #1 {
  %2 = tail call noalias dereferenceable_or_null(32) ptr @calloc(i64 noundef 1, i64 noundef 32) #11
  %3 = icmp eq ptr %2, null
  br i1 %3, label %4, label %gv_alloc.exit

4:                                                ; preds = %1
  %5 = load ptr, ptr @stderr, align 8, !tbaa !25
  %6 = tail call i32 (ptr, ptr, ...) @fprintf(ptr noundef %5, ptr noundef nonnull @.str.1, i64 noundef 32) #12
  tail call fastcc void @graphviz_exit() #13
  unreachable

gv_alloc.exit:                                    ; preds = %1
  %7 = sext i32 %0 to i64
  %.not.i = icmp eq i32 %0, 0
  br i1 %.not.i, label %.thread.i, label %9

.thread.i:                                        ; preds = %gv_alloc.exit
  %8 = tail call noalias ptr @calloc(i64 noundef 0, i64 noundef 64) #11
  br label %gv_calloc.exit

9:                                                ; preds = %gv_alloc.exit
  %mul.ov.i = icmp slt i32 %0, 0
  br i1 %mul.ov.i, label %10, label %13

10:                                               ; preds = %9
  %11 = load ptr, ptr @stderr, align 8, !tbaa !25
  %12 = tail call i32 (ptr, ptr, ...) @fprintf(ptr noundef %11, ptr noundef nonnull @.str, i64 noundef range(i64 -2147483648, 2147483648) %7, i64 noundef 64) #12
  tail call fastcc void @graphviz_exit() #13
  unreachable

13:                                               ; preds = %9
  %14 = tail call noalias ptr @calloc(i64 noundef range(i64 -2147483648, 2147483648) %7, i64 noundef 64) #11
  %15 = icmp eq ptr %14, null
  br i1 %15, label %16, label %gv_calloc.exit

16:                                               ; preds = %13
  %17 = load ptr, ptr @stderr, align 8, !tbaa !25
  %18 = shl nuw nsw i64 %7, 6
  %19 = tail call i32 (ptr, ptr, ...) @fprintf(ptr noundef %17, ptr noundef nonnull @.str.1, i64 noundef %18) #12
  tail call fastcc void @graphviz_exit() #13
  unreachable

gv_calloc.exit:                                   ; preds = %.thread.i, %13
  %20 = phi ptr [ %8, %.thread.i ], [ %14, %13 ]
  %21 = getelementptr inbounds nuw i8, ptr %2, i64 16
  store ptr %20, ptr %21, align 8, !tbaa !14
  ret ptr %2
}